target datalayout = "e-m:e-p270:32:32-p271:32:32-p272:64:64-i64:64-i128:128-f80:128-n8:16:32:64-S128"
target triple = "x86_64-pc-linux-gnu"

%struct.timespec = type { i64, i64 }

@uv__hrtime.fast_clock_id = internal global i64 -1, align 8

; Function Attrs: nounwind uwtable
define hidden i64 @uv__hrtime(i32 noundef %0) #0 {
  %2 = alloca i64, align 8
  %3 = alloca i32, align 4
  %4 = alloca %struct.timespec, align 8
  %5 = alloca i64, align 8
  %6 = alloca i64, align 8
  %7 = alloca i64, align 8
  %8 = alloca i32, align 4
  store i32 %0, ptr %3, align 4
  call void @llvm.lifetime.start.p0(i64 16, ptr %4) #12
  call void @llvm.lifetime.start.p0(i64 8, ptr %5) #12
  store i64 1, ptr %5, align 8
  %9 = load i32, ptr %3, align 4
  %10 = icmp ne i32 %9, 1
  br i1 %10, label %11, label %12

11:                                               ; preds = %1
  br label %30

12:                                               ; preds = %1
  %13 = load atomic i64, ptr @uv__hrtime.fast_clock_id monotonic, align 8
  store i64 %13, ptr %6, align 8
  %14 = load i64, ptr %6, align 8
  store i64 %14, ptr %5, align 8
  %15 = load i64, ptr %5, align 8
  %16 = icmp ne i64 %15, -1
  br i1 %16, label %17, label %18

17:                                               ; preds = %12
  br label %30

18:                                               ; preds = %12
  store i64 1, ptr %5, align 8
  %19 = call i32 @clock_getres(i32 noundef 6, ptr noundef %4) #12
  %20 = icmp eq i32 0, %19
  br i1 %20, label %21, label %27

21:                                               ; preds = %18
  %22 = getelementptr inbounds nuw %struct.timespec, ptr %4, i32 0, i32 1
  %23 = load i64, ptr %22, align 8
  %24 = icmp sle i64 %23, 1000000
  br i1 %24, label %25, label %26

25:                                               ; preds = %21
  store i64 6, ptr %5, align 8
  br label %26

26:                                               ; preds = %25, %21
  br label %27

27:                                               ; preds = %26, %18
  %28 = load i64, ptr %5, align 8
  store i64 %28, ptr %7, align 8
  %29 = load i64, ptr %7, align 8
  store atomic i64 %29, ptr @uv__hrtime.fast_clock_id monotonic, align 8
  br label %30

30:                                               ; preds = %27, %17, %11
  %31 = load i64, ptr %5, align 8
  %32 = trunc i64 %31 to i32
  %33 = call i32 @clock_gettime(i32 noundef %32, ptr noundef %4) #12
  %34 = icmp ne i32 %33, 0
  br i1 %34, label %35, label %36

35:                                               ; preds = %30
  store i64 0, ptr %2, align 8
  store i32 1, ptr %8, align 4
  br label %43

36:                                               ; preds = %30
  %37 = getelementptr inbounds nuw %struct.timespec, ptr %4, i32 0, i32 0
  %38 = load i64, ptr %37, align 8
  %39 = mul i64 %38, 1000000000
  %40 = getelementptr inbounds nuw %struct.timespec, ptr %4, i32 0, i32 1
  %41 = load i64, ptr %40, align 8
  %42 = add i64 %39, %41
  store i64 %42, ptr %2, align 8
  store i32 1, ptr %8, align 4
  br label %43

43:                                               ; preds = %36, %35
  call void @llvm.lifetime.end.p0(i64 8, ptr %5) #12
  call void @llvm.lifetime.end.p0(i64 16, ptr %4) #12
  %44 = load i64, ptr %2, align 8
  ret i64 %44
}